target datalayout = "e-m:e-p270:32:32-p271:32:32-p272:64:64-i64:64-i128:128-f80:128-n8:16:32:64-S128"
target triple = "x86_64-pc-linux-gnu"

%"class.std::basic_string_view" = type { i64, ptr }
%"class.std::locale" = type { ptr }
%"class.std::basic_ios" = type { %"class.std::ios_base", ptr, i8, i8, ptr, ptr, ptr, ptr }
%"class.std::ios_base" = type { ptr, i64, i64, i32, i32, i32, ptr, %"struct.std::ios_base::_Words", [8 x %"struct.std::ios_base::_Words"], i32, ptr, %"class.std::locale" }
%"struct.std::ios_base::_Words" = type { ptr, i64 }
%"class.(anonymous namespace)::utf8_byte_stream.66" = type { ptr }
%struct.__mbstate_t = type { i32, %union.anon.93 }
%union.anon.93 = type { i32 }
%"class.std::fpos" = type { i64, %struct.__mbstate_t }
%"class.std::basic_istream" = type { ptr, i64, %"class.std::basic_ios" }

@_ZN12_GLOBAL__N_120utf8_byte_order_markE = internal constant %"class.std::basic_string_view" { i64 3, ptr @.str.220 }, align 8

; Function Attrs: inlinehint mustprogress nounwind uwtable
define linkonce_odr noundef i32 @_ZStanSt12_Ios_IostateS_(i32 noundef %0, i32 noundef %1) #3 comdat {
  %3 = alloca i32, align 4
  %4 = alloca i32, align 4
  store i32 %0, ptr %3, align 4, !tbaa !701
  store i32 %1, ptr %4, align 4, !tbaa !701
  %5 = load i32, ptr %3, align 4, !tbaa !701
  %6 = load i32, ptr %4, align 4, !tbaa !701
  %7 = and i32 %5, %6
  ret i32 %7
}

; Function Attrs: inlinehint mustprogress nounwind uwtable
define linkonce_odr noundef i32 @_ZStorSt12_Ios_IostateS_(i32 noundef %0, i32 noundef %1) #3 comdat {
  %3 = alloca i32, align 4
  %4 = alloca i32, align 4
  store i32 %0, ptr %3, align 4, !tbaa !701
  store i32 %1, ptr %4, align 4, !tbaa !701
  %5 = load i32, ptr %3, align 4, !tbaa !701
  %6 = load i32, ptr %4, align 4, !tbaa !701
  %7 = or i32 %5, %6
  ret i32 %7
}

; Function Attrs: mustprogress nounwind uwtable
define available_externally noundef i32 @_ZNKSt9basic_iosIcSt11char_traitsIcEE7rdstateEv(ptr noundef nonnull align 8 dereferenceable(264) %0) #2 align 2 {
  %2 = alloca ptr, align 8
  store ptr %0, ptr %2, align 8, !tbaa !660
  %3 = load ptr, ptr %2, align 8
  %4 = getelementptr inbounds nuw %"class.std::ios_base", ptr %3, i32 0, i32 5
  %5 = load i32, ptr %4, align 8, !tbaa !702
  ret i32 %5
}

; Function Attrs: mustprogress nounwind uwtable
define linkonce_odr noundef i64 @_ZNKSt4fposI11__mbstate_tEcvlEv(ptr noundef nonnull align 8 dereferenceable(16) %0) #2 comdat align 2 {
  %2 = alloca ptr, align 8
  store ptr %0, ptr %2, align 8, !tbaa !827
  %3 = load ptr, ptr %2, align 8
  %4 = getelementptr inbounds nuw %"class.std::fpos", ptr %3, i32 0, i32 0
  %5 = load i64, ptr %4, align 8, !tbaa !829
  ret i64 %5
}

; Function Attrs: mustprogress nounwind uwtable
define linkonce_odr noundef ptr @_ZNKSt17basic_string_viewIcSt11char_traitsIcEE4dataEv(ptr noundef nonnull align 8 dereferenceable(16) %0) #2 comdat align 2 {
  %2 = alloca ptr, align 8
  store ptr %0, ptr %2, align 8, !tbaa !12
  %3 = load ptr, ptr %2, align 8
  %4 = getelementptr inbounds nuw %"class.std::basic_string_view", ptr %3, i32 0, i32 1
  %5 = load ptr, ptr %4, align 8, !tbaa !14
  ret ptr %5
}

; Function Attrs: mustprogress nounwind uwtable
define available_externally noundef i64 @_ZNKSi6gcountEv(ptr noundef nonnull align 8 dereferenceable(16) %0) #2 align 2 {
  %2 = alloca ptr, align 8
  store ptr %0, ptr %2, align 8, !tbaa !363
  %3 = load ptr, ptr %2, align 8
  %4 = getelementptr inbounds nuw %"class.std::basic_istream", ptr %3, i32 0, i32 1
  %5 = load i64, ptr %4, align 8, !tbaa !692
  ret i64 %5
}

; Function Attrs: mustprogress nounwind uwtable
define available_externally noundef zeroext i1 @_ZNKSt9basic_iosIcSt11char_traitsIcEE3badEv(ptr noundef nonnull align 8 dereferenceable(264) %0) #2 align 2 {
  %2 = alloca ptr, align 8
  store ptr %0, ptr %2, align 8, !tbaa !660
  %3 = load ptr, ptr %2, align 8
  %4 = call noundef i32 @_ZNKSt9basic_iosIcSt11char_traitsIcEE7rdstateEv(ptr noundef nonnull align 8 dereferenceable(264) %3)
  %5 = call noundef i32 @_ZStanSt12_Ios_IostateS_(i32 noundef %4, i32 noundef 1)
  %6 = icmp ne i32 %5, 0
  ret i1 %6
}

; Function Attrs: alwaysinline mustprogress nounwind willreturn memory(read) uwtable
define internal noundef zeroext i1 @_ZNK12_GLOBAL__N_116utf8_byte_streamISiEcvbEv(ptr noundef nonnull align 8 dereferenceable(8) %0) #5 align 2 {
  %2 = alloca ptr, align 8
  store ptr %0, ptr %2, align 8, !tbaa !982
  %3 = load ptr, ptr %2, align 8
  %4 = getelementptr inbounds nuw %"class.(anonymous namespace)::utf8_byte_stream.66", ptr %3, i32 0, i32 0
  %5 = load ptr, ptr %4, align 8, !tbaa !984
  %6 = load ptr, ptr %5, align 8, !tbaa !73
  %7 = getelementptr i8, ptr %6, i64 -24
  %8 = load i64, ptr %7, align 8
  %9 = getelementptr inbounds i8, ptr %5, i64 %8
  %10 = call noundef i32 @_ZNKSt9basic_iosIcSt11char_traitsIcEE7rdstateEv(ptr noundef nonnull align 8 dereferenceable(264) %9)
  %11 = call noundef i32 @_ZStorSt12_Ios_IostateS_(i32 noundef 1, i32 noundef 2)
  %12 = call noundef i32 @_ZStanSt12_Ios_IostateS_(i32 noundef %10, i32 noundef %11)
  %13 = icmp ne i32 %12, 0
  %14 = xor i1 %13, true
  ret i1 %14
}

; Function Attrs: mustprogress uwtable
define internal void @_ZN12_GLOBAL__N_116utf8_byte_streamISiEC2ERSi(ptr noundef nonnull align 8 dereferenceable(8) %0, ptr noundef nonnull align 8 dereferenceable(16) %1) unnamed_addr #0 align 2 {
  %3 = alloca ptr, align 8
  %4 = alloca ptr, align 8
  %5 = alloca %"class.std::fpos", align 8
  %6 = alloca [3 x i8], align 1
  %7 = alloca i32, align 4
  store ptr %0, ptr %3, align 8, !tbaa !982
  store ptr %1, ptr %4, align 8, !tbaa !363
  %8 = load ptr, ptr %3, align 8
  %9 = getelementptr inbounds nuw %"class.(anonymous namespace)::utf8_byte_stream.66", ptr %8, i32 0, i32 0
  %10 = load ptr, ptr %4, align 8, !tbaa !363
  store ptr %10, ptr %9, align 8, !tbaa !984
  %11 = call noundef zeroext i1 @_ZNK12_GLOBAL__N_116utf8_byte_streamISiEcvbEv(ptr noundef nonnull align 8 dereferenceable(8) %8) #37
  br i1 %11, label %13, label %12

12:                                               ; preds = %2
  br label %56

13:                                               ; preds = %2
  call void @llvm.lifetime.start.p0(i64 16, ptr %5) #36
  %14 = getelementptr inbounds nuw %"class.(anonymous namespace)::utf8_byte_stream.66", ptr %8, i32 0, i32 0
  %15 = load ptr, ptr %14, align 8, !tbaa !984
  %16 = call { i64, i64 } @_ZNSi5tellgEv(ptr noundef nonnull align 8 dereferenceable(16) %15)
  %17 = getelementptr inbounds nuw { i64, i64 }, ptr %5, i32 0, i32 0
  %18 = extractvalue { i64, i64 } %16, 0
  store i64 %18, ptr %17, align 8
  %19 = getelementptr inbounds nuw { i64, i64 }, ptr %5, i32 0, i32 1
  %20 = extractvalue { i64, i64 } %16, 1
  store i64 %20, ptr %19, align 8
  call void @llvm.lifetime.start.p0(i64 3, ptr %6) #36
  %21 = getelementptr inbounds nuw %"class.(anonymous namespace)::utf8_byte_stream.66", ptr %8, i32 0, i32 0
  %22 = load ptr, ptr %21, align 8, !tbaa !984
  %23 = getelementptr inbounds [3 x i8], ptr %6, i64 0, i64 0
  %24 = call noundef nonnull align 8 dereferenceable(16) ptr @_ZNSi4readEPcl(ptr noundef nonnull align 8 dereferenceable(16) %22, ptr noundef %23, i64 noundef 3)
  %25 = getelementptr inbounds nuw %"class.(anonymous namespace)::utf8_byte_stream.66", ptr %8, i32 0, i32 0
  %26 = load ptr, ptr %25, align 8, !tbaa !984
  %27 = load ptr, ptr %26, align 8, !tbaa !73
  %28 = getelementptr i8, ptr %27, i64 -24
  %29 = load i64, ptr %28, align 8
  %30 = getelementptr inbounds i8, ptr %26, i64 %29
  %31 = call noundef zeroext i1 @_ZNKSt9basic_iosIcSt11char_traitsIcEE3badEv(ptr noundef nonnull align 8 dereferenceable(264) %30)
  br i1 %31, label %42, label %32

32:                                               ; preds = %13
  %33 = getelementptr inbounds nuw %"class.(anonymous namespace)::utf8_byte_stream.66", ptr %8, i32 0, i32 0
  %34 = load ptr, ptr %33, align 8, !tbaa !984
  %35 = call noundef i64 @_ZNKSi6gcountEv(ptr noundef nonnull align 8 dereferenceable(16) %34)
  %36 = icmp eq i64 %35, 3
  br i1 %36, label %37, label %43

37:                                               ; preds = %32
  %38 = call noundef ptr @_ZNKSt17basic_string_viewIcSt11char_traitsIcEE4dataEv(ptr noundef nonnull align 8 dereferenceable(16) @_ZN12_GLOBAL__N_120utf8_byte_order_markE) #36
  %39 = getelementptr inbounds [3 x i8], ptr %6, i64 0, i64 0
  %40 = call i32 @memcmp(ptr noundef %38, ptr noundef %39, i64 noundef 3) #37
  %41 = icmp eq i32 %40, 0
  br i1 %41, label %42, label %43

42:                                               ; preds = %37, %13
  store i32 1, ptr %7, align 4
  br label %54

43:                                               ; preds = %37, %32
  %44 = getelementptr inbounds nuw %"class.(anonymous namespace)::utf8_byte_stream.66", ptr %8, i32 0, i32 0
  %45 = load ptr, ptr %44, align 8, !tbaa !984
  %46 = load ptr, ptr %45, align 8, !tbaa !73
  %47 = getelementptr i8, ptr %46, i64 -24
  %48 = load i64, ptr %47, align 8
  %49 = getelementptr inbounds i8, ptr %45, i64 %48
  call void @_ZNSt9basic_iosIcSt11char_traitsIcEE5clearESt12_Ios_Iostate(ptr noundef nonnull align 8 dereferenceable(264) %49, i32 noundef 0)
  %50 = getelementptr inbounds nuw %"class.(anonymous namespace)::utf8_byte_stream.66", ptr %8, i32 0, i32 0
  %51 = load ptr, ptr %50, align 8, !tbaa !984
  %52 = call noundef i64 @_ZNKSt4fposI11__mbstate_tEcvlEv(ptr noundef nonnull align 8 dereferenceable(16) %5)
  %53 = call noundef nonnull align 8 dereferenceable(16) ptr @_ZNSi5seekgElSt12_Ios_Seekdir(ptr noundef nonnull align 8 dereferenceable(16) %51, i64 noundef %52, i32 noundef 0)
  store i32 0, ptr %7, align 4
  br label %54

54:                                               ; preds = %43, %42
  call void @llvm.lifetime.end.p0(i64 3, ptr %6) #36
  call void @llvm.lifetime.end.p0(i64 16, ptr %5) #36
  %55 = load i32, ptr %7, align 4
  switch i32 %55, label %57 [
    i32 0, label %56
    i32 1, label %56
  ]

56:                                               ; preds = %12, %54, %54
  ret void

57:                                               ; preds = %54
  unreachable
}