; Function Attrs: mustprogress uwtable
define internal fastcc void @_ZN12_GLOBAL__N_116utf8_byte_streamISiEC2ERSi(ptr noundef nonnull align 8 captures(none) dereferenceable(8) initializes((0, 8)) %0, ptr noundef nonnull align 8 dereferenceable(16) %1) unnamed_addr #0 align 2 {
  %3 = alloca [3 x i8], align 1
  store ptr %1, ptr %0, align 8, !tbaa !685
  %4 = load ptr, ptr %1, align 8, !tbaa !44
  %5 = getelementptr i8, ptr %4, i64 -24
  %6 = load i64, ptr %5, align 8
  %7 = getelementptr inbounds i8, ptr %1, i64 %6
  %8 = getelementptr inbounds nuw i8, ptr %7, i64 32
  %9 = load i32, ptr %8, align 8, !tbaa !482
  %10 = and i32 %9, 3
  %.not.i = icmp eq i32 %10, 0
  br i1 %.not.i, label %11, label %34

11:                                               ; preds = %2
  %12 = tail call { i64, i64 } @_ZNSi5tellgEv(ptr noundef nonnull align 8 dereferenceable(16) %1)
  %13 = extractvalue { i64, i64 } %12, 0
  call void @llvm.lifetime.start.p0(i64 3, ptr nonnull %3) #50
  %14 = load ptr, ptr %0, align 8, !tbaa !685
  %15 = call noundef nonnull align 8 dereferenceable(16) ptr @_ZNSi4readEPcl(ptr noundef nonnull align 8 dereferenceable(16) %14, ptr noundef nonnull %3, i64 noundef 3)
  %16 = load ptr, ptr %0, align 8, !tbaa !685
  %17 = load ptr, ptr %16, align 8, !tbaa !44
  %18 = getelementptr i8, ptr %17, i64 -24
  %19 = load i64, ptr %18, align 8
  %20 = getelementptr inbounds i8, ptr %16, i64 %19
  %21 = getelementptr inbounds nuw i8, ptr %20, i64 32
  %22 = load i32, ptr %21, align 8, !tbaa !482
  %23 = and i32 %22, 1
  %.not = icmp eq i32 %23, 0
  br i1 %.not, label %24, label %33

24:                                               ; preds = %11
  %25 = getelementptr inbounds nuw i8, ptr %16, i64 8
  %26 = load i64, ptr %25, align 8, !tbaa !590
  %27 = icmp eq i64 %26, 3
  br i1 %27, label %28, label %30

28:                                               ; preds = %24
  %bcmp = call i32 @bcmp(ptr noundef nonnull dereferenceable(3) @.str.220, ptr noundef nonnull dereferenceable(3) %3, i64 3)
  %29 = icmp eq i32 %bcmp, 0
  br i1 %29, label %33, label %30

30:                                               ; preds = %28, %24
  call void @_ZNSt9basic_iosIcSt11char_traitsIcEE5clearESt12_Ios_Iostate(ptr noundef nonnull align 8 dereferenceable(264) %20, i32 noundef 0)
  %31 = load ptr, ptr %0, align 8, !tbaa !685
  %32 = call noundef nonnull align 8 dereferenceable(16) ptr @_ZNSi5seekgElSt12_Ios_Seekdir(ptr noundef nonnull align 8 dereferenceable(16) %31, i64 noundef %13, i32 noundef 0)
  br label %33

33:                                               ; preds = %11, %28, %30
  call void @llvm.lifetime.end.p0(i64 3, ptr nonnull %3) #50
  br label %34

34:                                               ; preds = %2, %33
  ret void
}